; Function Attrs: mustprogress uwtable
define hidden void @_ZN11pb_rewriter16validate_rewriteEP9func_decljPKP4exprR7obj_refIS2_11ast_managerE(ptr noundef nonnull readonly align 8 captures(none) dereferenceable(80) %0, ptr noundef %1, i32 noundef %2, ptr noundef %3, ptr noundef nonnull readonly align 8 captures(none) dereferenceable(16) %4) local_unnamed_addr #3 align 2 personality ptr @__gxx_personality_v0 {
  %6 = alloca %class.obj_ref.35, align 8
  %7 = alloca %class.obj_ref.35, align 8
  %8 = alloca %class.obj_ref, align 8
  %9 = getelementptr inbounds nuw i8, ptr %4, i64 8
  %10 = load ptr, ptr %9, align 8, !tbaa !67
  call void @llvm.lifetime.start.p0(i64 16, ptr nonnull %6) #22
  store ptr null, ptr %6, align 8, !tbaa !91
  %11 = getelementptr inbounds nuw i8, ptr %6, i64 8
  store ptr %10, ptr %11, align 8, !tbaa !18
  call void @llvm.lifetime.start.p0(i64 16, ptr nonnull %7) #22
  store ptr null, ptr %7, align 8, !tbaa !91
  %12 = getelementptr inbounds nuw i8, ptr %7, i64 8
  store ptr %10, ptr %12, align 8, !tbaa !18
  %13 = invoke noundef ptr @_ZN11ast_manager6mk_appEP9func_decljPKP4expr(ptr noundef nonnull align 8 dereferenceable(976) %10, ptr noundef %1, i32 noundef %2, ptr noundef %3)
          to label %14 unwind label %57

14:                                               ; preds = %5
  %.not.i = icmp eq ptr %13, null
  br i1 %.not.i, label %18, label %_ZN11ast_manager7inc_refEP3ast.exit.i

_ZN11ast_manager7inc_refEP3ast.exit.i:            ; preds = %14
  %15 = getelementptr inbounds nuw i8, ptr %13, i64 8
  %16 = load i32, ptr %15, align 4, !tbaa !61
  %17 = add i32 %16, 1
  store i32 %17, ptr %15, align 4, !tbaa !61
  br label %18

18:                                               ; preds = %14, %_ZN11ast_manager7inc_refEP3ast.exit.i
  store ptr %13, ptr %6, align 8, !tbaa !91
  %19 = load ptr, ptr %4, align 8, !tbaa !22
  %.not.i14 = icmp eq ptr %19, null
  br i1 %.not.i14, label %23, label %_ZN11ast_manager7inc_refEP3ast.exit.i15

_ZN11ast_manager7inc_refEP3ast.exit.i15:          ; preds = %18
  %20 = getelementptr inbounds nuw i8, ptr %19, i64 8
  %21 = load i32, ptr %20, align 4, !tbaa !61
  %22 = add i32 %21, 1
  store i32 %22, ptr %20, align 4, !tbaa !61
  br label %23

23:                                               ; preds = %18, %_ZN11ast_manager7inc_refEP3ast.exit.i15
  store ptr %19, ptr %7, align 8, !tbaa !91
  call void @llvm.lifetime.start.p0(i64 16, ptr nonnull %8) #22
  invoke void @_ZN11pb_rewriter19mk_validate_rewriteER7obj_refI3app11ast_managerES4_(ptr dead_on_unwind nonnull writable sret(%class.obj_ref) align 8 %8, ptr noundef nonnull align 8 dereferenceable(80) %0, ptr noundef nonnull align 8 dereferenceable(16) %6, ptr noundef nonnull align 8 dereferenceable(16) %7)
          to label %24 unwind label %59

24:                                               ; preds = %23
  %25 = load ptr, ptr %8, align 8, !tbaa !22
  invoke void @_ZN11pb_rewriter15dump_pb_rewriteEP4expr(ptr noundef nonnull align 8 dereferenceable(80) %0, ptr noundef %25)
          to label %26 unwind label %61

26:                                               ; preds = %24
  %27 = load ptr, ptr %8, align 8, !tbaa !22
  %.not.i.i = icmp eq ptr %27, null
  br i1 %.not.i.i, label %_ZN7obj_refI4expr11ast_managerED2Ev.exit, label %28

28:                                               ; preds = %26
  %29 = getelementptr inbounds nuw i8, ptr %8, i64 8
  %30 = load ptr, ptr %29, align 8, !tbaa !67
  %31 = getelementptr inbounds nuw i8, ptr %27, i64 8
  %32 = load i32, ptr %31, align 4, !tbaa !61
  %33 = add i32 %32, -1
  store i32 %33, ptr %31, align 4, !tbaa !61
  %34 = icmp eq i32 %33, 0
  br i1 %34, label %35, label %_ZN7obj_refI4expr11ast_managerED2Ev.exit

35:                                               ; preds = %28
  invoke void @_ZN11ast_manager11delete_nodeEP3ast(ptr noundef nonnull align 8 dereferenceable(976) %30, ptr noundef nonnull %27)
          to label %_ZN7obj_refI4expr11ast_managerED2Ev.exit unwind label %36

36:                                               ; preds = %35
  %37 = landingpad { ptr, i32 }
          catch ptr null
  %38 = extractvalue { ptr, i32 } %37, 0
  call void @__clang_call_terminate(ptr %38) #23
  unreachable

_ZN7obj_refI4expr11ast_managerED2Ev.exit:         ; preds = %26, %28, %35
  call void @llvm.lifetime.end.p0(i64 16, ptr nonnull %8) #22
  br i1 %.not.i14, label %_ZN7obj_refI3app11ast_managerED2Ev.exit, label %39

39:                                               ; preds = %_ZN7obj_refI4expr11ast_managerED2Ev.exit
  %40 = getelementptr inbounds nuw i8, ptr %19, i64 8
  %41 = load i32, ptr %40, align 4, !tbaa !61
  %42 = add i32 %41, -1
  store i32 %42, ptr %40, align 4, !tbaa !61
  %43 = icmp eq i32 %42, 0
  br i1 %43, label %44, label %_ZN7obj_refI3app11ast_managerED2Ev.exit

44:                                               ; preds = %39
  invoke void @_ZN11ast_manager11delete_nodeEP3ast(ptr noundef nonnull align 8 dereferenceable(976) %10, ptr noundef nonnull %19)
          to label %_ZN7obj_refI3app11ast_managerED2Ev.exit unwind label %45

45:                                               ; preds = %44
  %46 = landingpad { ptr, i32 }
          catch ptr null
  %47 = extractvalue { ptr, i32 } %46, 0
  call void @__clang_call_terminate(ptr %47) #23
  unreachable

_ZN7obj_refI3app11ast_managerED2Ev.exit:          ; preds = %_ZN7obj_refI4expr11ast_managerED2Ev.exit, %39, %44
  call void @llvm.lifetime.end.p0(i64 16, ptr nonnull %7) #22
  br i1 %.not.i, label %_ZN7obj_refI3app11ast_managerED2Ev.exit21, label %48

48:                                               ; preds = %_ZN7obj_refI3app11ast_managerED2Ev.exit
  %49 = getelementptr inbounds nuw i8, ptr %13, i64 8
  %50 = load i32, ptr %49, align 4, !tbaa !61
  %51 = add i32 %50, -1
  store i32 %51, ptr %49, align 4, !tbaa !61
  %52 = icmp eq i32 %51, 0
  br i1 %52, label %53, label %_ZN7obj_refI3app11ast_managerED2Ev.exit21

53:                                               ; preds = %48
  invoke void @_ZN11ast_manager11delete_nodeEP3ast(ptr noundef nonnull align 8 dereferenceable(976) %10, ptr noundef nonnull %13)
          to label %_ZN7obj_refI3app11ast_managerED2Ev.exit21 unwind label %54

54:                                               ; preds = %53
  %55 = landingpad { ptr, i32 }
          catch ptr null
  %56 = extractvalue { ptr, i32 } %55, 0
  call void @__clang_call_terminate(ptr %56) #23
  unreachable

_ZN7obj_refI3app11ast_managerED2Ev.exit21:        ; preds = %_ZN7obj_refI3app11ast_managerED2Ev.exit, %48, %53
  call void @llvm.lifetime.end.p0(i64 16, ptr nonnull %6) #22
  ret void

57:                                               ; preds = %5
  %58 = landingpad { ptr, i32 }
          cleanup
  br label %64

59:                                               ; preds = %23
  %60 = landingpad { ptr, i32 }
          cleanup
  br label %63

61:                                               ; preds = %24
  %62 = landingpad { ptr, i32 }
          cleanup
  call void @_ZN7obj_refI4expr11ast_managerED2Ev(ptr noundef nonnull align 8 dereferenceable(16) %8) #22
  br label %63

63:                                               ; preds = %61, %59
  %.pn = phi { ptr, i32 } [ %62, %61 ], [ %60, %59 ]
  call void @llvm.lifetime.end.p0(i64 16, ptr nonnull %8) #22
  br label %64

64:                                               ; preds = %63, %57
  %.pn.pn = phi { ptr, i32 } [ %.pn, %63 ], [ %58, %57 ]
  call void @_ZN7obj_refI3app11ast_managerED2Ev(ptr noundef nonnull align 8 dereferenceable(16) %7) #22
  call void @llvm.lifetime.end.p0(i64 16, ptr nonnull %7) #22
  call void @_ZN7obj_refI3app11ast_managerED2Ev(ptr noundef nonnull align 8 dereferenceable(16) %6) #22
  call void @llvm.lifetime.end.p0(i64 16, ptr nonnull %6) #22
  resume { ptr, i32 } %.pn.pn
}